target datalayout = "e-m:e-p270:32:32-p271:32:32-p272:64:64-i64:64-i128:128-f80:128-n8:16:32:64-S128"
target triple = "x86_64-pc-linux-gnu"

%union.ListCell = type { ptr }
%struct.ForEachState = type { ptr, i32 }
%struct.List = type { i32, i32, i32, ptr, [0 x %union.ListCell] }

; Function Attrs: nounwind uwtable
define dso_local i32 @select_common_typmod(ptr noundef %0, ptr noundef %1, i32 noundef %2) #0 {
  %4 = alloca i32, align 4
  %5 = alloca ptr, align 8
  %6 = alloca ptr, align 8
  %7 = alloca i32, align 4
  %8 = alloca ptr, align 8
  %9 = alloca i8, align 1
  %10 = alloca i32, align 4
  %11 = alloca %struct.ForEachState, align 8
  %12 = alloca i32, align 4
  %13 = alloca ptr, align 8
  store ptr %0, ptr %5, align 8
  store ptr %1, ptr %6, align 8
  store i32 %2, ptr %7, align 4
  call void @llvm.lifetime.start.p0(i64 8, ptr %8) #6
  call void @llvm.lifetime.start.p0(i64 1, ptr %9) #6
  store i8 1, ptr %9, align 1
  call void @llvm.lifetime.start.p0(i64 4, ptr %10) #6
  store i32 -1, ptr %10, align 4
  call void @llvm.lifetime.start.p0(i64 16, ptr %11) #6
  %14 = getelementptr inbounds nuw %struct.ForEachState, ptr %11, i32 0, i32 0
  %15 = load ptr, ptr %6, align 8
  store ptr %15, ptr %14, align 8
  %16 = getelementptr inbounds nuw %struct.ForEachState, ptr %11, i32 0, i32 1
  store i32 0, ptr %16, align 8
  %17 = getelementptr i8, ptr %11, i64 12
  call void @llvm.memset.p0.i64(ptr align 4 %17, i8 0, i64 4, i1 false)
  br label %18

18:                                               ; preds = %70, %3
  %19 = getelementptr inbounds nuw %struct.ForEachState, ptr %11, i32 0, i32 0
  %20 = load ptr, ptr %19, align 8
  %21 = icmp ne ptr %20, null
  br i1 %21, label %22, label %39

22:                                               ; preds = %18
  %23 = getelementptr inbounds nuw %struct.ForEachState, ptr %11, i32 0, i32 1
  %24 = load i32, ptr %23, align 8
  %25 = getelementptr inbounds nuw %struct.ForEachState, ptr %11, i32 0, i32 0
  %26 = load ptr, ptr %25, align 8
  %27 = getelementptr inbounds nuw %struct.List, ptr %26, i32 0, i32 1
  %28 = load i32, ptr %27, align 4
  %29 = icmp slt i32 %24, %28
  br i1 %29, label %30, label %39

30:                                               ; preds = %22
  %31 = getelementptr inbounds nuw %struct.ForEachState, ptr %11, i32 0, i32 0
  %32 = load ptr, ptr %31, align 8
  %33 = getelementptr inbounds nuw %struct.List, ptr %32, i32 0, i32 3
  %34 = load ptr, ptr %33, align 8
  %35 = getelementptr inbounds nuw %struct.ForEachState, ptr %11, i32 0, i32 1
  %36 = load i32, ptr %35, align 8
  %37 = sext i32 %36 to i64
  %38 = getelementptr inbounds %union.ListCell, ptr %34, i64 %37
  store ptr %38, ptr %8, align 8
  br label %40

39:                                               ; preds = %22, %18
  store ptr null, ptr %8, align 8
  br label %40

40:                                               ; preds = %39, %30
  %41 = phi i32 [ 1, %30 ], [ 0, %39 ]
  %42 = icmp ne i32 %41, 0
  br i1 %42, label %44, label %43

43:                                               ; preds = %40
  store i32 2, ptr %12, align 4
  br label %74

44:                                               ; preds = %40
  call void @llvm.lifetime.start.p0(i64 8, ptr %13) #6
  %45 = load ptr, ptr %8, align 8
  %46 = load ptr, ptr %45, align 8
  store ptr %46, ptr %13, align 8
  %47 = load ptr, ptr %13, align 8
  %48 = call i32 @exprType(ptr noundef %47)
  %49 = load i32, ptr %7, align 4
  %50 = icmp ne i32 %48, %49
  br i1 %50, label %51, label %52

51:                                               ; preds = %44
  store i32 -1, ptr %4, align 4
  store i32 1, ptr %12, align 4
  br label %67

52:                                               ; preds = %44
  %53 = load i8, ptr %9, align 1, !range !7, !noundef !8
  %54 = trunc i8 %53 to i1
  br i1 %54, label %55, label %58

55:                                               ; preds = %52
  %56 = load ptr, ptr %13, align 8
  %57 = call i32 @exprTypmod(ptr noundef %56)
  store i32 %57, ptr %10, align 4
  store i8 0, ptr %9, align 1
  br label %65

58:                                               ; preds = %52
  %59 = load i32, ptr %10, align 4
  %60 = load ptr, ptr %13, align 8
  %61 = call i32 @exprTypmod(ptr noundef %60)
  %62 = icmp ne i32 %59, %61
  br i1 %62, label %63, label %64

63:                                               ; preds = %58
  store i32 -1, ptr %4, align 4
  store i32 1, ptr %12, align 4
  br label %67

64:                                               ; preds = %58
  br label %65

65:                                               ; preds = %64, %55
  br label %66

66:                                               ; preds = %65
  store i32 0, ptr %12, align 4
  br label %67

67:                                               ; preds = %66, %63, %51
  call void @llvm.lifetime.end.p0(i64 8, ptr %13) #6
  %68 = load i32, ptr %12, align 4
  switch i32 %68, label %74 [
    i32 0, label %69
  ]

69:                                               ; preds = %67
  br label %70

70:                                               ; preds = %69
  %71 = getelementptr inbounds nuw %struct.ForEachState, ptr %11, i32 0, i32 1
  %72 = load i32, ptr %71, align 8
  %73 = add i32 %72, 1
  store i32 %73, ptr %71, align 8
  br label %18, !llvm.loop !14

74:                                               ; preds = %67, %43
  call void @llvm.lifetime.end.p0(i64 16, ptr %11) #6
  %75 = load i32, ptr %12, align 4
  switch i32 %75, label %78 [
    i32 2, label %76
  ]

76:                                               ; preds = %74
  %77 = load i32, ptr %10, align 4
  store i32 %77, ptr %4, align 4
  store i32 1, ptr %12, align 4
  br label %78

78:                                               ; preds = %76, %74
  call void @llvm.lifetime.end.p0(i64 4, ptr %10) #6
  call void @llvm.lifetime.end.p0(i64 1, ptr %9) #6
  call void @llvm.lifetime.end.p0(i64 8, ptr %8) #6
  %79 = load i32, ptr %4, align 4
  ret i32 %79
}