; Function Attrs: nounwind uwtable
define dso_local i32 @select_common_typmod(ptr noundef readnone captures(none) %0, ptr noundef readonly captures(address_is_null) %1, i32 noundef %2) local_unnamed_addr #0 {
  %4 = getelementptr inbounds nuw i8, ptr %1, i64 4
  %5 = getelementptr inbounds nuw i8, ptr %1, i64 16
  %.not = icmp eq ptr %1, null
  br i1 %.not, label %.thread45, label %.lr.ph.split

.lr.ph.split:                                     ; preds = %3
  %6 = load i32, ptr %4, align 4
  %7 = icmp sgt i32 %6, 0
  br i1 %7, label %.lr.ph63, label %.thread45

.lr.ph63:                                         ; preds = %.lr.ph.split, %.thread34
  %indvars.iv = phi i64 [ %indvars.iv.next, %.thread34 ], [ 0, %.lr.ph.split ]
  %.0224862 = phi i32 [ %.22438, %.thread34 ], [ -1, %.lr.ph.split ]
  %.0194961 = phi i1 [ false, %.thread34 ], [ true, %.lr.ph.split ]
  %8 = load ptr, ptr %5, align 8
  %9 = getelementptr inbounds nuw %union.ListCell, ptr %8, i64 %indvars.iv
  %10 = load ptr, ptr %9, align 8
  %11 = tail call i32 @exprType(ptr noundef %10) #5
  %.not28 = icmp eq i32 %11, %2
  br i1 %.not28, label %12, label %.thread45

12:                                               ; preds = %.lr.ph63
  %13 = tail call i32 @exprTypmod(ptr noundef %10) #5
  br i1 %.0194961, label %.thread34, label %14

14:                                               ; preds = %12
  %.not29 = icmp eq i32 %.0224862, %13
  br i1 %.not29, label %.thread34, label %.thread45

.thread34:                                        ; preds = %12, %14
  %.22438 = phi i32 [ %.0224862, %14 ], [ %13, %12 ]
  %indvars.iv.next = add nuw nsw i64 %indvars.iv, 1
  %15 = load i32, ptr %4, align 4
  %16 = sext i32 %15 to i64
  %17 = icmp slt i64 %indvars.iv.next, %16
  br i1 %17, label %.lr.ph63, label %.thread45

.thread45:                                        ; preds = %.thread34, %14, %.lr.ph63, %.lr.ph.split, %3
  %18 = phi i32 [ -1, %3 ], [ -1, %.lr.ph.split ], [ -1, %.lr.ph63 ], [ -1, %14 ], [ %.22438, %.thread34 ]
  ret i32 %18
}